target datalayout = "e-m:e-p270:32:32-p271:32:32-p272:64:64-i64:64-i128:128-f80:128-n8:16:32:64-S128"
target triple = "x86_64-unknown-linux-gnu"

%"class.llvh::StringRef" = type { ptr, i64 }

@_ZN6hermes17UnaryOperatorInst12opStringReprE = hidden global [9 x ptr] [ptr @.str, ptr @.str.1, ptr @.str.2, ptr @.str.3, ptr @.str.4, ptr @.str.5, ptr @.str.6, ptr @.str.7, ptr @.str.8], align 16

; Function Attrs: mustprogress nounwind uwtable
define hidden noundef i32 @_ZN6hermes17UnaryOperatorInst13parseOperatorEN4llvh9StringRefE(ptr %op.coerce0, i64 %op.coerce1) #0 align 2 {
entry:
  %retval.i = alloca i32, align 4
  %Lhs.addr.i = alloca ptr, align 8
  %Rhs.addr.i = alloca ptr, align 8
  %Length.addr.i = alloca i64, align 8
  %RHS.i3 = alloca %"class.llvh::StringRef", align 8
  %this.addr.i4 = alloca ptr, align 8
  %this.addr.i = alloca ptr, align 8
  %Str.addr.i = alloca ptr, align 8
  %LHS.i = alloca %"class.llvh::StringRef", align 8
  %RHS.i = alloca %"class.llvh::StringRef", align 8
  %agg.tmp.i = alloca %"class.llvh::StringRef", align 8
  %op = alloca %"class.llvh::StringRef", align 8
  %i = alloca i32, align 4
  %agg.tmp = alloca %"class.llvh::StringRef", align 8
  %agg.tmp1 = alloca %"class.llvh::StringRef", align 8
  %0 = getelementptr inbounds { ptr, i64 }, ptr %op, i32 0, i32 0
  store ptr %op.coerce0, ptr %0, align 8
  %1 = getelementptr inbounds { ptr, i64 }, ptr %op, i32 0, i32 1
  store i64 %op.coerce1, ptr %1, align 8
  store i32 0, ptr %i, align 4
  br label %for.cond

for.cond:                                         ; preds = %for.inc, %entry
  %2 = load i32, ptr %i, align 4
  %cmp = icmp slt i32 %2, 26
  br i1 %cmp, label %for.body, label %for.end

for.body:                                         ; preds = %for.cond
  call void @llvm.memcpy.p0.p0.i64(ptr align 8 %agg.tmp, ptr align 8 %op, i64 16, i1 false)
  %3 = load i32, ptr %i, align 4
  %idxprom = sext i32 %3 to i64
  %arrayidx = getelementptr inbounds [9 x ptr], ptr @_ZN6hermes17UnaryOperatorInst12opStringReprE, i64 0, i64 %idxprom
  %4 = load ptr, ptr %arrayidx, align 8
  store ptr %agg.tmp1, ptr %this.addr.i, align 8
  store ptr %4, ptr %Str.addr.i, align 8
  %this1.i = load ptr, ptr %this.addr.i, align 8
  %5 = load ptr, ptr %Str.addr.i, align 8
  store ptr %5, ptr %this1.i, align 8
  %Length.i = getelementptr inbounds %"class.llvh::StringRef", ptr %this1.i, i32 0, i32 1
  %6 = load ptr, ptr %Str.addr.i, align 8
  %tobool.i = icmp ne ptr %6, null
  br i1 %tobool.i, label %cond.true.i, label %cond.false.i

cond.true.i:                                      ; preds = %for.body
  %7 = load ptr, ptr %Str.addr.i, align 8
  %call.i2 = call i64 @strlen(ptr noundef %7) #8
  br label %_ZN4llvh9StringRefC2EPKc.exit

cond.false.i:                                     ; preds = %for.body
  br label %_ZN4llvh9StringRefC2EPKc.exit

_ZN4llvh9StringRefC2EPKc.exit:                    ; preds = %cond.false.i, %cond.true.i
  %cond.i = phi i64 [ %call.i2, %cond.true.i ], [ 0, %cond.false.i ]
  store i64 %cond.i, ptr %Length.i, align 8
  %8 = getelementptr inbounds { ptr, i64 }, ptr %agg.tmp, i32 0, i32 0
  %9 = load ptr, ptr %8, align 8
  %10 = getelementptr inbounds { ptr, i64 }, ptr %agg.tmp, i32 0, i32 1
  %11 = load i64, ptr %10, align 8
  %12 = getelementptr inbounds { ptr, i64 }, ptr %agg.tmp1, i32 0, i32 0
  %13 = load ptr, ptr %12, align 8
  %14 = getelementptr inbounds { ptr, i64 }, ptr %agg.tmp1, i32 0, i32 1
  %15 = load i64, ptr %14, align 8
  store ptr %9, ptr %LHS.i, align 8
  %16 = getelementptr inbounds { ptr, i64 }, ptr %LHS.i, i32 0, i32 1
  store i64 %11, ptr %16, align 8
  store ptr %13, ptr %RHS.i, align 8
  %17 = getelementptr inbounds { ptr, i64 }, ptr %RHS.i, i32 0, i32 1
  store i64 %15, ptr %17, align 8
  call void @llvm.memcpy.p0.p0.i64(ptr align 8 %agg.tmp.i, ptr align 8 %RHS.i, i64 16, i1 false)
  %18 = load ptr, ptr %agg.tmp.i, align 8
  %19 = getelementptr inbounds { ptr, i64 }, ptr %agg.tmp.i, i32 0, i32 1
  %20 = load i64, ptr %19, align 8
  store ptr %18, ptr %RHS.i3, align 8
  %21 = getelementptr inbounds { ptr, i64 }, ptr %RHS.i3, i32 0, i32 1
  store i64 %20, ptr %21, align 8
  store ptr %LHS.i, ptr %this.addr.i4, align 8
  %this1.i5 = load ptr, ptr %this.addr.i4, align 8
  %Length.i6 = getelementptr inbounds %"class.llvh::StringRef", ptr %this1.i5, i32 0, i32 1
  %22 = load i64, ptr %Length.i6, align 8
  %Length2.i = getelementptr inbounds %"class.llvh::StringRef", ptr %RHS.i3, i32 0, i32 1
  %23 = load i64, ptr %Length2.i, align 8
  %cmp.i = icmp eq i64 %22, %23
  br i1 %cmp.i, label %land.rhs.i, label %_ZNK4llvh9StringRef6equalsES0_.exit

land.rhs.i:                                       ; preds = %_ZN4llvh9StringRefC2EPKc.exit
  %24 = load ptr, ptr %this1.i5, align 8
  %25 = load ptr, ptr %RHS.i3, align 8
  %Length4.i = getelementptr inbounds %"class.llvh::StringRef", ptr %RHS.i3, i32 0, i32 1
  %26 = load i64, ptr %Length4.i, align 8
  store ptr %24, ptr %Lhs.addr.i, align 8
  store ptr %25, ptr %Rhs.addr.i, align 8
  store i64 %26, ptr %Length.addr.i, align 8
  %27 = load i64, ptr %Length.addr.i, align 8
  %cmp.i8 = icmp eq i64 %27, 0
  br i1 %cmp.i8, label %if.then.i, label %if.end.i

if.then.i:                                        ; preds = %land.rhs.i
  store i32 0, ptr %retval.i, align 4
  br label %_ZN4llvh9StringRef13compareMemoryEPKcS2_m.exit

if.end.i:                                         ; preds = %land.rhs.i
  %28 = load ptr, ptr %Lhs.addr.i, align 8
  %29 = load ptr, ptr %Rhs.addr.i, align 8
  %30 = load i64, ptr %Length.addr.i, align 8
  %call.i = call i32 @memcmp(ptr noundef %28, ptr noundef %29, i64 noundef %30) #8
  store i32 %call.i, ptr %retval.i, align 4
  br label %_ZN4llvh9StringRef13compareMemoryEPKcS2_m.exit

_ZN4llvh9StringRef13compareMemoryEPKcS2_m.exit:   ; preds = %if.end.i, %if.then.i
  %31 = load i32, ptr %retval.i, align 4
  %cmp5.i = icmp eq i32 %31, 0
  br label %_ZNK4llvh9StringRef6equalsES0_.exit

_ZNK4llvh9StringRef6equalsES0_.exit:              ; preds = %_ZN4llvh9StringRef13compareMemoryEPKcS2_m.exit, %_ZN4llvh9StringRefC2EPKc.exit
  %32 = phi i1 [ false, %_ZN4llvh9StringRefC2EPKc.exit ], [ %cmp5.i, %_ZN4llvh9StringRef13compareMemoryEPKcS2_m.exit ]
  br i1 %32, label %if.then, label %if.end

if.then:                                          ; preds = %_ZNK4llvh9StringRef6equalsES0_.exit
  %33 = load i32, ptr %i, align 4
  ret i32 %33

if.end:                                           ; preds = %_ZNK4llvh9StringRef6equalsES0_.exit
  br label %for.inc

for.inc:                                          ; preds = %if.end
  %34 = load i32, ptr %i, align 4
  %inc = add nsw i32 %34, 1
  store i32 %inc, ptr %i, align 4
  br label %for.cond, !llvm.loop !4

for.end:                                          ; preds = %for.cond
  unreachable
}