; Function Attrs: mustprogress nofree nounwind memory(read, inaccessiblemem: write) uwtable
define hidden noundef range(i32 0, 26) i32 @_ZN6hermes17UnaryOperatorInst13parseOperatorEN4llvh9StringRefE(ptr readonly captures(none) %op.coerce0, i64 %op.coerce1) local_unnamed_addr #2 align 2 {
entry:
  %op.coerce1.fr = freeze i64 %op.coerce1
  %cmp.i9 = icmp eq i64 %op.coerce1.fr, 0
  br i1 %cmp.i9, label %entry.split.us, label %for.cond

entry.split.us:                                   ; preds = %entry
  %0 = load ptr, ptr @_ZN6hermes17UnaryOperatorInst12opStringReprE, align 16
  %tobool.i.not.us14 = icmp eq ptr %0, null
  br i1 %tobool.i.not.us14, label %if.then, label %_ZN4llvh9StringRefC2EPKc.exit.us

_ZN4llvh9StringRefC2EPKc.exit.us:                 ; preds = %entry.split.us, %for.inc.us
  %indvars.iv18 = phi i64 [ %indvars.iv.next19, %for.inc.us ], [ 0, %entry.split.us ]
  %1 = phi ptr [ %2, %for.inc.us ], [ %0, %entry.split.us ]
  %char0 = load i8, ptr %1, align 1
  %cmp.i.us = icmp eq i8 %char0, 0
  br i1 %cmp.i.us, label %if.then.loopexit, label %for.inc.us

for.inc.us:                                       ; preds = %_ZN4llvh9StringRefC2EPKc.exit.us
  %indvars.iv.next19 = add nuw nsw i64 %indvars.iv18, 1
  %cmp.us = icmp samesign ult i64 %indvars.iv18, 25
  tail call void @llvm.assume(i1 %cmp.us)
  %arrayidx.us = getelementptr inbounds nuw [9 x ptr], ptr @_ZN6hermes17UnaryOperatorInst12opStringReprE, i64 0, i64 %indvars.iv.next19
  %2 = load ptr, ptr %arrayidx.us, align 8
  %tobool.i.not.us = icmp eq ptr %2, null
  br i1 %tobool.i.not.us, label %if.then.loopexit, label %_ZN4llvh9StringRefC2EPKc.exit.us, !llvm.loop !4

for.cond:                                         ; preds = %entry, %for.inc
  %indvars.iv = phi i64 [ %indvars.iv.next, %for.inc ], [ 0, %entry ]
  %cmp = icmp samesign ult i64 %indvars.iv, 26
  tail call void @llvm.assume(i1 %cmp)
  %arrayidx = getelementptr inbounds nuw [9 x ptr], ptr @_ZN6hermes17UnaryOperatorInst12opStringReprE, i64 0, i64 %indvars.iv
  %3 = load ptr, ptr %arrayidx, align 8
  %tobool.i.not = icmp eq ptr %3, null
  br i1 %tobool.i.not, label %for.inc, label %_ZN4llvh9StringRefC2EPKc.exit

_ZN4llvh9StringRefC2EPKc.exit:                    ; preds = %for.cond
  %call.i2 = tail call i64 @strlen(ptr noundef nonnull dereferenceable(1) %3) #16
  %cmp.i = icmp eq i64 %op.coerce1.fr, %call.i2
  br i1 %cmp.i, label %if.end.i, label %for.inc

if.end.i:                                         ; preds = %_ZN4llvh9StringRefC2EPKc.exit
  %bcmp = tail call i32 @bcmp(ptr %op.coerce0, ptr nonnull %3, i64 %op.coerce1.fr)
  %4 = icmp eq i32 %bcmp, 0
  br i1 %4, label %if.then.loopexit21, label %for.inc

if.then.loopexit:                                 ; preds = %for.inc.us, %_ZN4llvh9StringRefC2EPKc.exit.us
  %.us-phi.ph.ph.in = phi i64 [ %indvars.iv.next19, %for.inc.us ], [ %indvars.iv18, %_ZN4llvh9StringRefC2EPKc.exit.us ]
  %.us-phi.ph.ph = trunc nsw i64 %.us-phi.ph.ph.in to i32
  br label %if.then

if.then.loopexit21:                               ; preds = %if.end.i
  %5 = trunc nuw nsw i64 %indvars.iv to i32
  br label %if.then

if.then:                                          ; preds = %if.then.loopexit21, %if.then.loopexit, %entry.split.us
  %.us-phi = phi i32 [ 0, %entry.split.us ], [ %.us-phi.ph.ph, %if.then.loopexit ], [ %5, %if.then.loopexit21 ]
  ret i32 %.us-phi

for.inc:                                          ; preds = %for.cond, %if.end.i, %_ZN4llvh9StringRefC2EPKc.exit
  %indvars.iv.next = add nuw nsw i64 %indvars.iv, 1
  br label %for.cond, !llvm.loop !4
}